; ModuleID = '19/442.c'
source_filename = "19/442.c"
target datalayout = "e-m:e-p270:32:32-p271:32:32-p272:64:64-i64:64-f80:128-n8:16:32:64-S128"
target triple = "x86_64-pc-linux-gnu"

@.str = private unnamed_addr constant [3 x i8] c"%s\00", align 1
@.str.1 = private unnamed_addr constant [1 x i8] zeroinitializer, align 1
@.str.2 = private unnamed_addr constant [2 x i8] c" \00", align 1

; Function Attrs: noinline nounwind uwtable
define dso_local void @main() #0 {
  %1 = alloca [30 x [20 x i8]], align 16
  %2 = alloca [101 x i8], align 16
  %3 = alloca [101 x i8], align 16
  %4 = alloca i8, align 1
  %5 = alloca [20 x i8]*, align 8
  %6 = alloca i32, align 4
  %7 = bitcast [30 x [20 x i8]]* %1 to i8*
  call void @llvm.memset.p0i8.i64(i8* align 16 %7, i8 0, i64 600, i1 false)
  %8 = bitcast [101 x i8]* %2 to i8*
  call void @llvm.memset.p0i8.i64(i8* align 16 %8, i8 0, i64 101, i1 false)
  %9 = bitcast [101 x i8]* %3 to i8*
  call void @llvm.memset.p0i8.i64(i8* align 16 %9, i8 0, i64 101, i1 false)
  store i32 0, i32* %6, align 4
  store i8 0, i8* %4, align 1
  %10 = getelementptr inbounds [30 x [20 x i8]], [30 x [20 x i8]]* %1, i64 0, i64 0
  store [20 x i8]* %10, [20 x i8]** %5, align 8
  br label %11

11:                                               ; preds = %15, %0
  %12 = load i8, i8* %4, align 1
  %13 = sext i8 %12 to i32
  %14 = icmp ne i32 %13, 10
  br i1 %14, label %15, label %24

15:                                               ; preds = %11
  %16 = load [20 x i8]*, [20 x i8]** %5, align 8
  %17 = load i32, i32* %6, align 4
  %18 = add nsw i32 %17, 1
  store i32 %18, i32* %6, align 4
  %19 = sext i32 %17 to i64
  %20 = getelementptr inbounds [20 x i8], [20 x i8]* %16, i64 %19
  %21 = call i32 (i8*, ...) @__isoc99_scanf(i8* getelementptr inbounds ([3 x i8], [3 x i8]* @.str, i64 0, i64 0), [20 x i8]* %20)
  %22 = call i32 @getchar()
  %23 = trunc i32 %22 to i8
  store i8 %23, i8* %4, align 1
  br label %11

24:                                               ; preds = %11
  %25 = getelementptr inbounds [101 x i8], [101 x i8]* %2, i64 0, i64 0
  %26 = call i32 (i8*, ...) bitcast (i32 (...)* @gets to i32 (i8*, ...)*)(i8* %25)
  %27 = getelementptr inbounds [101 x i8], [101 x i8]* %3, i64 0, i64 0
  %28 = call i32 (i8*, ...) bitcast (i32 (...)* @gets to i32 (i8*, ...)*)(i8* %27)
  %29 = getelementptr inbounds [30 x [20 x i8]], [30 x [20 x i8]]* %1, i64 0, i64 0
  store [20 x i8]* %29, [20 x i8]** %5, align 8
  br label %30

30:                                               ; preds = %57, %24
  %31 = load [20 x i8]*, [20 x i8]** %5, align 8
  %32 = getelementptr inbounds [20 x i8], [20 x i8]* %31, i64 0, i64 0
  %33 = call i32 @strcmp(i8* %32, i8* getelementptr inbounds ([1 x i8], [1 x i8]* @.str.1, i64 0, i64 0)) #4
  %34 = icmp ne i32 %33, 0
  br i1 %34, label %35, label %58

35:                                               ; preds = %30
  %36 = load [20 x i8]*, [20 x i8]** %5, align 8
  %37 = getelementptr inbounds [20 x i8], [20 x i8]* %36, i64 0, i64 0
  %38 = getelementptr inbounds [101 x i8], [101 x i8]* %2, i64 0, i64 0
  %39 = call i32 @strcmp(i8* %37, i8* %38) #4
  %40 = icmp eq i32 %39, 0
  br i1 %40, label %41, label %44

41:                                               ; preds = %35
  %42 = getelementptr inbounds [101 x i8], [101 x i8]* %3, i64 0, i64 0
  %43 = call i32 (i8*, ...) @printf(i8* getelementptr inbounds ([3 x i8], [3 x i8]* @.str, i64 0, i64 0), i8* %42)
  br label %48

44:                                               ; preds = %35
  %45 = load [20 x i8]*, [20 x i8]** %5, align 8
  %46 = getelementptr inbounds [20 x i8], [20 x i8]* %45, i64 0, i64 0
  %47 = call i32 (i8*, ...) @printf(i8* getelementptr inbounds ([3 x i8], [3 x i8]* @.str, i64 0, i64 0), i8* %46)
  br label %48

48:                                               ; preds = %44, %41
  %49 = load [20 x i8]*, [20 x i8]** %5, align 8
  %50 = getelementptr inbounds [20 x i8], [20 x i8]* %49, i32 1
  store [20 x i8]* %50, [20 x i8]** %5, align 8
  %51 = load [20 x i8]*, [20 x i8]** %5, align 8
  %52 = getelementptr inbounds [20 x i8], [20 x i8]* %51, i64 0, i64 0
  %53 = call i32 @strcmp(i8* %52, i8* getelementptr inbounds ([1 x i8], [1 x i8]* @.str.1, i64 0, i64 0)) #4
  %54 = icmp ne i32 %53, 0
  br i1 %54, label %55, label %57

55:                                               ; preds = %48
  %56 = call i32 (i8*, ...) @printf(i8* getelementptr inbounds ([2 x i8], [2 x i8]* @.str.2, i64 0, i64 0))
  br label %57

57:                                               ; preds = %55, %48
  br label %30

58:                                               ; preds = %30
  ret void
}

; Function Attrs: argmemonly nounwind willreturn
declare void @llvm.memset.p0i8.i64(i8* nocapture writeonly, i8, i64, i1 immarg) #1

declare dso_local i32 @__isoc99_scanf(i8*, ...) #2

declare dso_local i32 @getchar() #2

declare dso_local i32 @gets(...) #2

; Function Attrs: nounwind readonly
declare dso_local i32 @strcmp(i8*, i8*) #3

declare dso_local i32 @printf(i8*, ...) #2


!llvm.module.flags = !{!0}
!llvm.ident = !{!1}

!0 = !{i32 1, !"wchar_size", i32 4}
!1 = !{!"clang version 10.0.0-4ubuntu1 "}
